; Function Attrs: nounwind uwtable
define dso_local void @generic_context_release_locals_list(ptr noundef %0) local_unnamed_addr #0 {
  %2 = load ptr, ptr getelementptr inbounds (%struct.GlobalContext, ptr @global_context, i64 0, i32 13), align 8
  %.not.i = icmp eq ptr %2, null
  br i1 %.not.i, label %3, label %6

3:                                                ; preds = %1
  %4 = tail call ptr @calloc_arena(i64 noundef 72) #10
  %5 = getelementptr inbounds i8, ptr %4, i64 4
  store i32 8, ptr %5, align 4
  br label %8

6:                                                ; preds = %1
  %7 = getelementptr inbounds i8, ptr %2, i64 -8
  %.phi.trans.insert.i = getelementptr inbounds i8, ptr %2, i64 -4
  %.pre.i = load i32, ptr %.phi.trans.insert.i, align 4
  br label %8

8:                                                ; preds = %6, %3
  %9 = phi i32 [ %.pre.i, %6 ], [ 8, %3 ]
  %.0.i = phi ptr [ %7, %6 ], [ %4, %3 ]
  %10 = load i32, ptr %.0.i, align 4
  %11 = icmp eq i32 %10, %9
  br i1 %11, label %12, label %26

12:                                               ; preds = %8
  %13 = getelementptr inbounds i8, ptr %.0.i, i64 4
  %14 = shl i32 %9, 1
  %15 = zext i32 %14 to i64
  %16 = shl nuw nsw i64 %15, 3
  %17 = or disjoint i64 %16, 8
  %18 = tail call ptr @calloc_arena(i64 noundef %17) #10
  %19 = getelementptr inbounds i8, ptr %18, i64 4
  store i32 %14, ptr %19, align 4
  %20 = load i32, ptr %13, align 4
  %21 = zext i32 %20 to i64
  %22 = shl nuw nsw i64 %21, 3
  %23 = add nuw nsw i64 %22, 8
  tail call void @llvm.memcpy.p0.p0.i64(ptr noundef nonnull align 4 dereferenceable(1) %18, ptr noundef nonnull align 4 dereferenceable(1) %.0.i, i64 %23, i1 false)
  %24 = load i32, ptr %19, align 4
  %25 = shl i32 %24, 1
  store i32 %25, ptr %19, align 4
  %.pre18.i = load i32, ptr %18, align 4
  br label %26

26:                                               ; preds = %8, %12
  %27 = phi i32 [ %.pre18.i, %12 ], [ %10, %8 ]
  %.1.i = phi ptr [ %18, %12 ], [ %.0.i, %8 ]
  %28 = add i32 %27, 1
  store i32 %28, ptr %.1.i, align 4
  %29 = getelementptr inbounds i8, ptr %.1.i, i64 8
  store ptr %29, ptr getelementptr inbounds (%struct.GlobalContext, ptr @global_context, i64 0, i32 13), align 8
  %30 = load i32, ptr %.1.i, align 4
  %31 = add i32 %30, -1
  %32 = zext i32 %31 to i64
  %33 = getelementptr inbounds ptr, ptr %29, i64 %32
  store ptr %0, ptr %33, align 8
  ret void
}